target datalayout = "e-m:e-p270:32:32-p271:32:32-p272:64:64-i64:64-i128:128-f80:128-n8:16:32:64-S128"
target triple = "x86_64-pc-linux-gnu"

%"class.std::__cxx11::basic_string" = type { %"struct.std::__cxx11::basic_string<char>::_Alloc_hider", i64, %union.anon }
%"struct.std::__cxx11::basic_string<char>::_Alloc_hider" = type { ptr }
%union.anon = type { i64, [8 x i8] }
%"class.gmx::ArrayRef" = type { %"struct.gmx::ArrayRefIter", %"struct.gmx::ArrayRefIter" }
%"struct.gmx::ArrayRefIter" = type { ptr }

@.str.33 = private unnamed_addr constant [23 x i8] c"@ view %g, %g, %g, %g\0A\00", align 1
@.str.35 = private unnamed_addr constant [13 x i8] c"@ legend on\0A\00", align 1
@.str.36 = private unnamed_addr constant [17 x i8] c"@ legend box on\0A\00", align 1
@.str.37 = private unnamed_addr constant [23 x i8] c"@ legend loctype view\0A\00", align 1
@.str.38 = private unnamed_addr constant [17 x i8] c"@ legend %g, %g\0A\00", align 1
@.str.39 = private unnamed_addr constant [20 x i8] c"@ legend length %d\0A\00", align 1
@.str.40 = private unnamed_addr constant [25 x i8] c"@ legend string %d \22%s\22\0A\00", align 1
@.str.41 = private unnamed_addr constant [19 x i8] c"@ s%d legend \22%s\22\0A\00", align 1

; Function Attrs: mustprogress nounwind uwtable
define linkonce_odr noundef i64 @_ZNK3gmx12ArrayRefIterIKNSt7__cxx1112basic_stringIcSt11char_traitsIcESaIcEEEEmiES8_(ptr noundef nonnull align 8 dereferenceable(8) %0, ptr %1) #3 comdat align 2 {
  %3 = alloca %"struct.gmx::ArrayRefIter", align 8
  %4 = alloca ptr, align 8
  %5 = getelementptr inbounds %"struct.gmx::ArrayRefIter", ptr %3, i32 0, i32 0
  store ptr %1, ptr %5, align 8
  store ptr %0, ptr %4, align 8
  %6 = load ptr, ptr %4, align 8
  %7 = getelementptr inbounds %"struct.gmx::ArrayRefIter", ptr %6, i32 0, i32 0
  %8 = load ptr, ptr %7, align 8
  %9 = getelementptr inbounds %"struct.gmx::ArrayRefIter", ptr %3, i32 0, i32 0
  %10 = load ptr, ptr %9, align 8
  %11 = ptrtoint ptr %8 to i64
  %12 = ptrtoint ptr %10 to i64
  %13 = sub i64 %11, %12
  %14 = sdiv exact i64 %13, 32
  ret i64 %14
}

; Function Attrs: mustprogress nounwind uwtable
define linkonce_odr noundef i64 @_ZN3gmx5boost14stl_interfaces6detail11common_diffINS_12ArrayRefIterIKNSt7__cxx1112basic_stringIcSt11char_traitsIcESaIcEEEEESC_EEDTmiscNSt11conditionalIXsr3std14is_convertibleIT_T0_EE5valueESF_SE_E4typeEfp_scSH_fp0_ESE_SF_(ptr %0, ptr %1) #3 comdat {
  %3 = alloca %"struct.gmx::ArrayRefIter", align 8
  %4 = alloca %"struct.gmx::ArrayRefIter", align 8
  %5 = alloca %"struct.gmx::ArrayRefIter", align 8
  %6 = alloca %"struct.gmx::ArrayRefIter", align 8
  %7 = getelementptr inbounds %"struct.gmx::ArrayRefIter", ptr %3, i32 0, i32 0
  store ptr %0, ptr %7, align 8
  %8 = getelementptr inbounds %"struct.gmx::ArrayRefIter", ptr %4, i32 0, i32 0
  store ptr %1, ptr %8, align 8
  call void @llvm.memcpy.p0.p0.i64(ptr align 8 %5, ptr align 8 %3, i64 8, i1 false)
  call void @llvm.memcpy.p0.p0.i64(ptr align 8 %6, ptr align 8 %4, i64 8, i1 false)
  %9 = getelementptr inbounds %"struct.gmx::ArrayRefIter", ptr %6, i32 0, i32 0
  %10 = load ptr, ptr %9, align 8
  %11 = call noundef i64 @_ZNK3gmx12ArrayRefIterIKNSt7__cxx1112basic_stringIcSt11char_traitsIcESaIcEEEEmiES8_(ptr noundef nonnull align 8 dereferenceable(8) %5, ptr %10) #13
  ret i64 %11
}

; Function Attrs: mustprogress nounwind uwtable
define linkonce_odr noundef nonnull align 8 dereferenceable(8) ptr @_ZN3gmx12ArrayRefIterIKNSt7__cxx1112basic_stringIcSt11char_traitsIcESaIcEEEEpLEl(ptr noundef nonnull align 8 dereferenceable(8) %0, i64 noundef %1) #3 comdat align 2 {
  %3 = alloca ptr, align 8
  %4 = alloca i64, align 8
  store ptr %0, ptr %3, align 8
  store i64 %1, ptr %4, align 8
  %5 = load ptr, ptr %3, align 8
  %6 = load i64, ptr %4, align 8
  %7 = getelementptr inbounds %"struct.gmx::ArrayRefIter", ptr %5, i32 0, i32 0
  %8 = load ptr, ptr %7, align 8
  %9 = getelementptr inbounds %"class.std::__cxx11::basic_string", ptr %8, i64 %6
  store ptr %9, ptr %7, align 8
  ret ptr %5
}

; Function Attrs: mustprogress nounwind uwtable
define linkonce_odr noundef nonnull align 8 dereferenceable(8) ptr @_ZN3gmx5boost14stl_interfaces2v118iterator_interfaceINS_12ArrayRefIterIKNSt7__cxx1112basic_stringIcSt11char_traitsIcESaIcEEEEESt26random_access_iterator_tagSB_RSB_PSB_lvE7derivedEv(ptr noundef nonnull align 1 dereferenceable(1) %0) #3 comdat align 2 {
  %2 = alloca ptr, align 8
  store ptr %0, ptr %2, align 8
  %3 = load ptr, ptr %2, align 8
  ret ptr %3
}

; Function Attrs: mustprogress nounwind uwtable
define linkonce_odr noundef zeroext i1 @_ZN3gmx5boost14stl_interfaces2v1eqINS_12ArrayRefIterIKNSt7__cxx1112basic_stringIcSt11char_traitsIcESaIcEEEEESC_vEEDTcmclsr6v1_dtlE16derived_iteratorfp_Eeqclsr6detailE11common_difffp_fp0_ELi0EET_T0_(ptr %0, ptr %1) #3 comdat {
  %3 = alloca %"struct.gmx::ArrayRefIter", align 8
  %4 = alloca %"struct.gmx::ArrayRefIter", align 8
  %5 = alloca %"struct.gmx::ArrayRefIter", align 8
  %6 = alloca %"struct.gmx::ArrayRefIter", align 8
  %7 = getelementptr inbounds %"struct.gmx::ArrayRefIter", ptr %3, i32 0, i32 0
  store ptr %0, ptr %7, align 8
  %8 = getelementptr inbounds %"struct.gmx::ArrayRefIter", ptr %4, i32 0, i32 0
  store ptr %1, ptr %8, align 8
  call void @llvm.memcpy.p0.p0.i64(ptr align 8 %5, ptr align 8 %3, i64 8, i1 false)
  call void @llvm.memcpy.p0.p0.i64(ptr align 8 %6, ptr align 8 %4, i64 8, i1 false)
  %9 = getelementptr inbounds %"struct.gmx::ArrayRefIter", ptr %5, i32 0, i32 0
  %10 = load ptr, ptr %9, align 8
  %11 = getelementptr inbounds %"struct.gmx::ArrayRefIter", ptr %6, i32 0, i32 0
  %12 = load ptr, ptr %11, align 8
  %13 = call noundef i64 @_ZN3gmx5boost14stl_interfaces6detail11common_diffINS_12ArrayRefIterIKNSt7__cxx1112basic_stringIcSt11char_traitsIcESaIcEEEEESC_EEDTmiscNSt11conditionalIXsr3std14is_convertibleIT_T0_EE5valueESF_SE_E4typeEfp_scSH_fp0_ESE_SF_(ptr %10, ptr %12) #13
  %14 = icmp eq i64 %13, 0
  ret i1 %14
}

; Function Attrs: mustprogress nounwind uwtable
define linkonce_odr noundef nonnull align 8 dereferenceable(8) ptr @_ZN3gmx5boost14stl_interfaces2v118iterator_interfaceINS_12ArrayRefIterIKNSt7__cxx1112basic_stringIcSt11char_traitsIcESaIcEEEEESt26random_access_iterator_tagSB_RSB_PSB_lvEppISC_EEDTcmpLclsr3stdE7declvalIRT_EEcvlLi1Eclsr3stdE7declvalISJ_EEEv(ptr noundef nonnull align 1 dereferenceable(1) %0) #3 comdat align 2 {
  %2 = alloca ptr, align 8
  store ptr %0, ptr %2, align 8
  %3 = load ptr, ptr %2, align 8
  %4 = call noundef nonnull align 8 dereferenceable(8) ptr @_ZN3gmx5boost14stl_interfaces2v118iterator_interfaceINS_12ArrayRefIterIKNSt7__cxx1112basic_stringIcSt11char_traitsIcESaIcEEEEESt26random_access_iterator_tagSB_RSB_PSB_lvE7derivedEv(ptr noundef nonnull align 1 dereferenceable(1) %3) #13
  %5 = call noundef nonnull align 8 dereferenceable(8) ptr @_ZN3gmx12ArrayRefIterIKNSt7__cxx1112basic_stringIcSt11char_traitsIcESaIcEEEEpLEl(ptr noundef nonnull align 8 dereferenceable(8) %4, i64 noundef 1) #13
  %6 = call noundef nonnull align 8 dereferenceable(8) ptr @_ZN3gmx5boost14stl_interfaces2v118iterator_interfaceINS_12ArrayRefIterIKNSt7__cxx1112basic_stringIcSt11char_traitsIcESaIcEEEEESt26random_access_iterator_tagSB_RSB_PSB_lvE7derivedEv(ptr noundef nonnull align 1 dereferenceable(1) %3) #13
  ret ptr %6
}

; Function Attrs: mustprogress nounwind uwtable
define internal noundef zeroext i1 @_ZL13stringIsEmptyRKNSt7__cxx1112basic_stringIcSt11char_traitsIcESaIcEEE(ptr noundef nonnull align 8 dereferenceable(32) %0) #3 {
  %2 = alloca ptr, align 8
  store ptr %0, ptr %2, align 8
  %3 = load ptr, ptr %2, align 8
  %4 = call noundef zeroext i1 @_ZNKSt7__cxx1112basic_stringIcSt11char_traitsIcESaIcEE5emptyEv(ptr noundef nonnull align 8 dereferenceable(32) %3) #13
  ret i1 %4
}

; Function Attrs: mustprogress nounwind uwtable
define linkonce_odr noundef nonnull align 8 dereferenceable(32) ptr @_ZNK3gmx12ArrayRefIterIKNSt7__cxx1112basic_stringIcSt11char_traitsIcESaIcEEEEdeEv(ptr noundef nonnull align 8 dereferenceable(8) %0) #3 comdat align 2 {
  %2 = alloca ptr, align 8
  store ptr %0, ptr %2, align 8
  %3 = load ptr, ptr %2, align 8
  %4 = getelementptr inbounds %"struct.gmx::ArrayRefIter", ptr %3, i32 0, i32 0
  %5 = load ptr, ptr %4, align 8
  ret ptr %5
}

; Function Attrs: mustprogress nounwind uwtable
define linkonce_odr noundef zeroext i1 @_ZN3gmx5boost14stl_interfaces2v1neINS_12ArrayRefIterIKNSt7__cxx1112basic_stringIcSt11char_traitsIcESaIcEEEEESC_EEDTcmclsr6v1_dtlE16derived_iteratorfp_Enteqfp_fp0_ET_T0_(ptr %0, ptr %1) #3 comdat {
  %3 = alloca %"struct.gmx::ArrayRefIter", align 8
  %4 = alloca %"struct.gmx::ArrayRefIter", align 8
  %5 = alloca %"struct.gmx::ArrayRefIter", align 8
  %6 = alloca %"struct.gmx::ArrayRefIter", align 8
  %7 = getelementptr inbounds %"struct.gmx::ArrayRefIter", ptr %3, i32 0, i32 0
  store ptr %0, ptr %7, align 8
  %8 = getelementptr inbounds %"struct.gmx::ArrayRefIter", ptr %4, i32 0, i32 0
  store ptr %1, ptr %8, align 8
  call void @llvm.memcpy.p0.p0.i64(ptr align 8 %5, ptr align 8 %3, i64 8, i1 false)
  call void @llvm.memcpy.p0.p0.i64(ptr align 8 %6, ptr align 8 %4, i64 8, i1 false)
  %9 = getelementptr inbounds %"struct.gmx::ArrayRefIter", ptr %5, i32 0, i32 0
  %10 = load ptr, ptr %9, align 8
  %11 = getelementptr inbounds %"struct.gmx::ArrayRefIter", ptr %6, i32 0, i32 0
  %12 = load ptr, ptr %11, align 8
  %13 = call noundef zeroext i1 @_ZN3gmx5boost14stl_interfaces2v1eqINS_12ArrayRefIterIKNSt7__cxx1112basic_stringIcSt11char_traitsIcESaIcEEEEESC_vEEDTcmclsr6v1_dtlE16derived_iteratorfp_Eeqclsr6detailE11common_difffp_fp0_ELi0EET_T0_(ptr %10, ptr %12) #13
  %14 = xor i1 %13, true
  ret i1 %14
}

; Function Attrs: mustprogress nounwind uwtable
define linkonce_odr ptr @_ZNK3gmx8ArrayRefIKNSt7__cxx1112basic_stringIcSt11char_traitsIcESaIcEEEE3endEv(ptr noundef nonnull align 8 dereferenceable(16) %0) #3 comdat align 2 {
  %2 = alloca %"struct.gmx::ArrayRefIter", align 8
  %3 = alloca ptr, align 8
  store ptr %0, ptr %3, align 8
  %4 = load ptr, ptr %3, align 8
  %5 = getelementptr inbounds %"class.gmx::ArrayRef", ptr %4, i32 0, i32 1
  call void @llvm.memcpy.p0.p0.i64(ptr align 8 %2, ptr align 8 %5, i64 8, i1 false)
  %6 = getelementptr inbounds %"struct.gmx::ArrayRefIter", ptr %2, i32 0, i32 0
  %7 = load ptr, ptr %6, align 8
  ret ptr %7
}

; Function Attrs: mustprogress nounwind uwtable
define linkonce_odr ptr @_ZNK3gmx8ArrayRefIKNSt7__cxx1112basic_stringIcSt11char_traitsIcESaIcEEEE5beginEv(ptr noundef nonnull align 8 dereferenceable(16) %0) #3 comdat align 2 {
  %2 = alloca %"struct.gmx::ArrayRefIter", align 8
  %3 = alloca ptr, align 8
  store ptr %0, ptr %3, align 8
  %4 = load ptr, ptr %3, align 8
  %5 = getelementptr inbounds %"class.gmx::ArrayRef", ptr %4, i32 0, i32 0
  call void @llvm.memcpy.p0.p0.i64(ptr align 8 %2, ptr align 8 %5, i64 8, i1 false)
  %6 = getelementptr inbounds %"struct.gmx::ArrayRefIter", ptr %2, i32 0, i32 0
  %7 = load ptr, ptr %6, align 8
  ret ptr %7
}

; Function Attrs: mustprogress uwtable
define void @_Z9xvgr_viewP8_IO_FILEffffPK16gmx_output_env_t(ptr noundef %0, float noundef %1, float noundef %2, float noundef %3, float noundef %4, ptr noundef %5) #0 {
  %7 = alloca ptr, align 8
  %8 = alloca float, align 4
  %9 = alloca float, align 4
  %10 = alloca float, align 4
  %11 = alloca float, align 4
  %12 = alloca ptr, align 8
  store ptr %0, ptr %7, align 8
  store float %1, ptr %8, align 4
  store float %2, ptr %9, align 4
  store float %3, ptr %10, align 4
  store float %4, ptr %11, align 4
  store ptr %5, ptr %12, align 8
  %13 = load ptr, ptr %12, align 8
  %14 = call noundef zeroext i1 @_Z31output_env_get_print_xvgr_codesPK16gmx_output_env_t(ptr noundef %13)
  br i1 %14, label %15, label %26

15:                                               ; preds = %6
  %16 = load ptr, ptr %7, align 8
  %17 = load float, ptr %8, align 4
  %18 = fpext float %17 to double
  %19 = load float, ptr %9, align 4
  %20 = fpext float %19 to double
  %21 = load float, ptr %10, align 4
  %22 = fpext float %21 to double
  %23 = load float, ptr %11, align 4
  %24 = fpext float %23 to double
  %25 = call i32 (ptr, ptr, ...) @fprintf(ptr noundef %16, ptr noundef @.str.33, double noundef %18, double noundef %20, double noundef %22, double noundef %24) #13
  br label %26

26:                                               ; preds = %15, %6
  ret void
}

; Function Attrs: mustprogress uwtable
define noundef zeroext i1 @_Z31output_env_get_print_xvgr_codesPK16gmx_output_env_t(ptr noundef %0) #0 {
  %2 = alloca ptr, align 8
  %3 = alloca i32, align 4
  store ptr %0, ptr %2, align 8
  %4 = load ptr, ptr %2, align 8
  %5 = call noundef i32 @_Z25output_env_get_xvg_formatPK16gmx_output_env_t(ptr noundef %4)
  store i32 %5, ptr %3, align 4
  %6 = load i32, ptr %3, align 4
  %7 = icmp eq i32 %6, 0
  br i1 %7, label %11, label %8

8:                                                ; preds = %1
  %9 = load i32, ptr %3, align 4
  %10 = icmp eq i32 %9, 1
  br label %11

11:                                               ; preds = %8, %1
  %12 = phi i1 [ true, %1 ], [ %10, %8 ]
  ret i1 %12
}

; Function Attrs: mustprogress uwtable
define void @_Z10xvgrLegendP8_IO_FILEN3gmx8ArrayRefIKNSt7__cxx1112basic_stringIcSt11char_traitsIcESaIcEEEEEPK16gmx_output_env_t(ptr noundef %0, ptr %1, ptr %2, ptr noundef %3) #0 {
  %5 = alloca %"class.gmx::ArrayRef", align 8
  %6 = alloca ptr, align 8
  %7 = alloca ptr, align 8
  %8 = alloca [4096 x i8], align 16
  %9 = alloca i32, align 4
  %10 = alloca ptr, align 8
  %11 = alloca %"struct.gmx::ArrayRefIter", align 8
  %12 = alloca %"struct.gmx::ArrayRefIter", align 8
  %13 = alloca %"struct.gmx::ArrayRefIter", align 8
  %14 = alloca %"struct.gmx::ArrayRefIter", align 8
  %15 = alloca ptr, align 8
  %16 = getelementptr inbounds { ptr, ptr }, ptr %5, i32 0, i32 0
  store ptr %1, ptr %16, align 8
  %17 = getelementptr inbounds { ptr, ptr }, ptr %5, i32 0, i32 1
  store ptr %2, ptr %17, align 8
  store ptr %0, ptr %6, align 8
  store ptr %3, ptr %7, align 8
  %18 = load ptr, ptr %7, align 8
  %19 = call noundef zeroext i1 @_Z31output_env_get_print_xvgr_codesPK16gmx_output_env_t(ptr noundef %18)
  br i1 %19, label %20, label %76

20:                                               ; preds = %4
  %21 = load ptr, ptr %6, align 8
  %22 = load ptr, ptr %7, align 8
  call void @_Z9xvgr_viewP8_IO_FILEffffPK16gmx_output_env_t(ptr noundef %21, float noundef 0x3FC3333340000000, float noundef 0x3FC3333340000000, float noundef 7.500000e-01, float noundef 0x3FEB333340000000, ptr noundef %22)
  %23 = load ptr, ptr %6, align 8
  %24 = call i32 (ptr, ptr, ...) @fprintf(ptr noundef %23, ptr noundef @.str.35) #13
  %25 = load ptr, ptr %6, align 8
  %26 = call i32 (ptr, ptr, ...) @fprintf(ptr noundef %25, ptr noundef @.str.36) #13
  %27 = load ptr, ptr %6, align 8
  %28 = call i32 (ptr, ptr, ...) @fprintf(ptr noundef %27, ptr noundef @.str.37) #13
  %29 = load ptr, ptr %6, align 8
  %30 = call i32 (ptr, ptr, ...) @fprintf(ptr noundef %29, ptr noundef @.str.38, double noundef 7.800000e-01, double noundef 8.000000e-01) #13
  %31 = load ptr, ptr %6, align 8
  %32 = call i32 (ptr, ptr, ...) @fprintf(ptr noundef %31, ptr noundef @.str.39, i32 noundef 2) #13
  store i32 0, ptr %9, align 4
  store ptr %5, ptr %10, align 8
  %33 = load ptr, ptr %10, align 8
  %34 = call ptr @_ZNK3gmx8ArrayRefIKNSt7__cxx1112basic_stringIcSt11char_traitsIcESaIcEEEE5beginEv(ptr noundef nonnull align 8 dereferenceable(16) %33)
  %35 = getelementptr inbounds %"struct.gmx::ArrayRefIter", ptr %11, i32 0, i32 0
  store ptr %34, ptr %35, align 8
  %36 = load ptr, ptr %10, align 8
  %37 = call ptr @_ZNK3gmx8ArrayRefIKNSt7__cxx1112basic_stringIcSt11char_traitsIcESaIcEEEE3endEv(ptr noundef nonnull align 8 dereferenceable(16) %36)
  %38 = getelementptr inbounds %"struct.gmx::ArrayRefIter", ptr %12, i32 0, i32 0
  store ptr %37, ptr %38, align 8
  br label %39

39:                                               ; preds = %73, %20
  call void @llvm.memcpy.p0.p0.i64(ptr align 8 %13, ptr align 8 %11, i64 8, i1 false)
  call void @llvm.memcpy.p0.p0.i64(ptr align 8 %14, ptr align 8 %12, i64 8, i1 false)
  %40 = getelementptr inbounds %"struct.gmx::ArrayRefIter", ptr %13, i32 0, i32 0
  %41 = load ptr, ptr %40, align 8
  %42 = getelementptr inbounds %"struct.gmx::ArrayRefIter", ptr %14, i32 0, i32 0
  %43 = load ptr, ptr %42, align 8
  %44 = call noundef zeroext i1 @_ZN3gmx5boost14stl_interfaces2v1neINS_12ArrayRefIterIKNSt7__cxx1112basic_stringIcSt11char_traitsIcESaIcEEEEESC_EEDTcmclsr6v1_dtlE16derived_iteratorfp_Enteqfp_fp0_ET_T0_(ptr %41, ptr %43) #13
  br i1 %44, label %45, label %75

45:                                               ; preds = %39
  %46 = call noundef nonnull align 8 dereferenceable(32) ptr @_ZNK3gmx12ArrayRefIterIKNSt7__cxx1112basic_stringIcSt11char_traitsIcESaIcEEEEdeEv(ptr noundef nonnull align 8 dereferenceable(8) %11) #13
  store ptr %46, ptr %15, align 8
  %47 = load ptr, ptr %15, align 8
  %48 = call noundef zeroext i1 @_ZL13stringIsEmptyRKNSt7__cxx1112basic_stringIcSt11char_traitsIcESaIcEEE(ptr noundef nonnull align 8 dereferenceable(32) %47)
  br i1 %48, label %70, label %49

49:                                               ; preds = %45
  %50 = load ptr, ptr %7, align 8
  %51 = call noundef i32 @_Z25output_env_get_xvg_formatPK16gmx_output_env_t(ptr noundef %50)
  %52 = icmp eq i32 %51, 1
  br i1 %52, label %53, label %61

53:                                               ; preds = %49
  %54 = load ptr, ptr %6, align 8
  %55 = load i32, ptr %9, align 4
  %56 = load ptr, ptr %15, align 8
  %57 = load ptr, ptr %7, align 8
  %58 = getelementptr inbounds [4096 x i8], ptr %8, i64 0, i64 0
  %59 = call noundef ptr @_ZL7xvgrstrRKNSt7__cxx1112basic_stringIcSt11char_traitsIcESaIcEEEPK16gmx_output_env_tPci(ptr noundef nonnull align 8 dereferenceable(32) %56, ptr noundef %57, ptr noundef %58, i32 noundef 4096)
  %60 = call i32 (ptr, ptr, ...) @fprintf(ptr noundef %54, ptr noundef @.str.40, i32 noundef %55, ptr noundef %59) #13
  br label %69

61:                                               ; preds = %49
  %62 = load ptr, ptr %6, align 8
  %63 = load i32, ptr %9, align 4
  %64 = load ptr, ptr %15, align 8
  %65 = load ptr, ptr %7, align 8
  %66 = getelementptr inbounds [4096 x i8], ptr %8, i64 0, i64 0
  %67 = call noundef ptr @_ZL7xvgrstrRKNSt7__cxx1112basic_stringIcSt11char_traitsIcESaIcEEEPK16gmx_output_env_tPci(ptr noundef nonnull align 8 dereferenceable(32) %64, ptr noundef %65, ptr noundef %66, i32 noundef 4096)
  %68 = call i32 (ptr, ptr, ...) @fprintf(ptr noundef %62, ptr noundef @.str.41, i32 noundef %63, ptr noundef %67) #13
  br label %69

69:                                               ; preds = %61, %53
  br label %70

70:                                               ; preds = %69, %45
  %71 = load i32, ptr %9, align 4
  %72 = add nsw i32 %71, 1
  store i32 %72, ptr %9, align 4
  br label %73

73:                                               ; preds = %70
  %74 = call noundef nonnull align 8 dereferenceable(8) ptr @_ZN3gmx5boost14stl_interfaces2v118iterator_interfaceINS_12ArrayRefIterIKNSt7__cxx1112basic_stringIcSt11char_traitsIcESaIcEEEEESt26random_access_iterator_tagSB_RSB_PSB_lvEppISC_EEDTcmpLclsr3stdE7declvalIRT_EEcvlLi1Eclsr3stdE7declvalISJ_EEEv(ptr noundef nonnull align 1 dereferenceable(1) %11) #13
  br label %39

75:                                               ; preds = %39
  br label %76

76:                                               ; preds = %75, %4
  ret void
}