; Function Attrs: mustprogress uwtable
define void @_Z10xvgrLegendP8_IO_FILEN3gmx8ArrayRefIKNSt7__cxx1112basic_stringIcSt11char_traitsIcESaIcEEEEEPK16gmx_output_env_t(ptr nocapture noundef %0, ptr %1, ptr readnone %2, ptr noundef %3) local_unnamed_addr #0 {
  %5 = alloca [4096 x i8], align 16
  %6 = tail call noundef i32 @_Z25output_env_get_xvg_formatPK16gmx_output_env_t(ptr noundef %3)
  %7 = icmp ult i32 %6, 2
  br i1 %7, label %8, label %.loopexit

8:                                                ; preds = %4
  %9 = tail call noundef i32 @_Z25output_env_get_xvg_formatPK16gmx_output_env_t(ptr noundef %3)
  %10 = icmp ult i32 %9, 2
  br i1 %10, label %11, label %_Z9xvgr_viewP8_IO_FILEffffPK16gmx_output_env_t.exit

11:                                               ; preds = %8
  %12 = tail call i32 (ptr, ptr, ...) @fprintf(ptr noundef %0, ptr noundef nonnull @.str.33, double noundef 0x3FC3333340000000, double noundef 0x3FC3333340000000, double noundef 7.500000e-01, double noundef 0x3FEB333340000000) #20
  br label %_Z9xvgr_viewP8_IO_FILEffffPK16gmx_output_env_t.exit

_Z9xvgr_viewP8_IO_FILEffffPK16gmx_output_env_t.exit: ; preds = %8, %11
  %13 = tail call i64 @fwrite(ptr nonnull @.str.35, i64 12, i64 1, ptr %0)
  %14 = tail call i64 @fwrite(ptr nonnull @.str.36, i64 16, i64 1, ptr %0)
  %15 = tail call i64 @fwrite(ptr nonnull @.str.37, i64 22, i64 1, ptr %0)
  %16 = tail call i32 (ptr, ptr, ...) @fprintf(ptr noundef %0, ptr noundef nonnull @.str.38, double noundef 7.800000e-01, double noundef 8.000000e-01) #20
  %17 = tail call i32 (ptr, ptr, ...) @fprintf(ptr noundef %0, ptr noundef nonnull @.str.39, i32 noundef 2) #20
  %.not25 = icmp eq ptr %1, %2
  br i1 %.not25, label %.loopexit, label %.lr.ph

.lr.ph:                                           ; preds = %_Z9xvgr_viewP8_IO_FILEffffPK16gmx_output_env_t.exit, %23
  %.027 = phi i32 [ %24, %23 ], [ 0, %_Z9xvgr_viewP8_IO_FILEffffPK16gmx_output_env_t.exit ]
  %.sroa.0.026 = phi ptr [ %25, %23 ], [ %1, %_Z9xvgr_viewP8_IO_FILEffffPK16gmx_output_env_t.exit ]
  %18 = call noundef zeroext i1 @_ZNKSt7__cxx1112basic_stringIcSt11char_traitsIcESaIcEE5emptyEv(ptr noundef nonnull align 8 dereferenceable(32) %.sroa.0.026) #20
  br i1 %18, label %23, label %.sink.split

.sink.split:                                      ; preds = %.lr.ph
  %19 = call noundef i32 @_Z25output_env_get_xvg_formatPK16gmx_output_env_t(ptr noundef %3)
  %20 = icmp eq i32 %19, 1
  %21 = call fastcc noundef ptr @_ZL7xvgrstrRKNSt7__cxx1112basic_stringIcSt11char_traitsIcESaIcEEEPK16gmx_output_env_tPci(ptr noundef nonnull align 8 dereferenceable(32) %.sroa.0.026, ptr noundef %3, ptr noundef nonnull %5)
  %.str.40..str.41 = select i1 %20, ptr @.str.40, ptr @.str.41
  %22 = call i32 (ptr, ptr, ...) @fprintf(ptr noundef %0, ptr noundef nonnull %.str.40..str.41, i32 noundef %.027, ptr noundef nonnull %5) #20
  br label %23

23:                                               ; preds = %.sink.split, %.lr.ph
  %24 = add nuw nsw i32 %.027, 1
  %25 = getelementptr inbounds i8, ptr %.sroa.0.026, i64 32
  %.not = icmp eq ptr %25, %2
  br i1 %.not, label %.loopexit, label %.lr.ph

.loopexit:                                        ; preds = %23, %_Z9xvgr_viewP8_IO_FILEffffPK16gmx_output_env_t.exit, %4
  ret void
}